; Function Attrs: mustprogress nofree norecurse nosync nounwind willreturn memory(read, inaccessiblemem: none) uwtable
define dso_local ptr @onig_reg_callout_list_at(ptr noundef readonly captures(none) %0, i32 noundef %1) local_unnamed_addr #13 {
  %3 = getelementptr inbounds nuw i8, ptr %0, i64 448
  %4 = load ptr, ptr %3, align 8, !tbaa !89
  %5 = icmp eq ptr %4, null
  %6 = icmp slt i32 %1, 1
  %or.cond = or i1 %6, %5
  br i1 %or.cond, label %17, label %7

7:                                                ; preds = %2
  %8 = getelementptr inbounds nuw i8, ptr %4, i64 24
  %9 = load i32, ptr %8, align 8, !tbaa !90
  %10 = icmp sgt i32 %1, %9
  br i1 %10, label %17, label %11

11:                                               ; preds = %7
  %12 = getelementptr inbounds nuw i8, ptr %4, i64 32
  %13 = load ptr, ptr %12, align 8, !tbaa !92
  %14 = zext nneg i32 %1 to i64
  %15 = getelementptr %struct.CalloutListEntry, ptr %13, i64 %14
  %16 = getelementptr i8, ptr %15, i64 -144
  br label %17

17:                                               ; preds = %7, %2, %11
  %.0 = phi ptr [ %16, %11 ], [ null, %2 ], [ null, %7 ]
  ret ptr %.0
}